; Function Attrs: mustprogress nounwind uwtable
define dso_local void @_ZN25cmRulePlaceholderExpanderC2ESt3mapINSt7__cxx1112basic_stringIcSt11char_traitsIcESaIcEEES6_St4lessIS6_ESaISt4pairIKS6_S6_EEESD_S6_S6_(ptr noundef nonnull align 8 dereferenceable(216) %0, ptr noundef %1, ptr noundef %2, ptr noundef %3, ptr noundef %4) unnamed_addr #3 align 2 personality ptr @__gxx_personality_v0 {
  store ptr getelementptr inbounds ({ [5 x ptr] }, ptr @_ZTV25cmRulePlaceholderExpander, i64 0, i32 0, i64 2), ptr %0, align 8
  %6 = getelementptr inbounds i8, ptr %0, i64 8
  tail call void @_ZNSt7__cxx1112basic_stringIcSt11char_traitsIcESaIcEEC1Ev(ptr noundef nonnull align 8 dereferenceable(32) %6) #14
  %7 = getelementptr inbounds i8, ptr %0, i64 48
  %8 = getelementptr inbounds i8, ptr %1, i64 16
  %9 = load ptr, ptr %8, align 8
  %.not.i.i.i.i = icmp eq ptr %9, null
  br i1 %.not.i.i.i.i, label %25, label %10

10:                                               ; preds = %5
  %11 = getelementptr inbounds i8, ptr %1, i64 8
  %12 = load i32, ptr %11, align 8
  store i32 %12, ptr %7, align 8
  %13 = load ptr, ptr %8, align 8
  %14 = getelementptr inbounds i8, ptr %0, i64 56
  store ptr %13, ptr %14, align 8
  %15 = getelementptr inbounds i8, ptr %1, i64 24
  %16 = load ptr, ptr %15, align 8
  %17 = getelementptr inbounds i8, ptr %0, i64 64
  store ptr %16, ptr %17, align 8
  %18 = getelementptr inbounds i8, ptr %1, i64 32
  %19 = load ptr, ptr %18, align 8
  %20 = getelementptr inbounds i8, ptr %0, i64 72
  store ptr %19, ptr %20, align 8
  %21 = getelementptr inbounds i8, ptr %13, i64 8
  store ptr %7, ptr %21, align 8
  %22 = getelementptr inbounds i8, ptr %1, i64 40
  %23 = load i64, ptr %22, align 8
  %24 = getelementptr inbounds i8, ptr %0, i64 80
  store i64 %23, ptr %24, align 8
  store ptr null, ptr %8, align 8
  store ptr %11, ptr %15, align 8
  store ptr %11, ptr %18, align 8
  br label %_ZNSt3mapINSt7__cxx1112basic_stringIcSt11char_traitsIcESaIcEEES5_St4lessIS5_ESaISt4pairIKS5_S5_EEEC2EOSC_.exit

25:                                               ; preds = %5
  store i32 0, ptr %7, align 8
  %26 = getelementptr inbounds i8, ptr %0, i64 56
  store ptr null, ptr %26, align 8
  %27 = getelementptr inbounds i8, ptr %0, i64 64
  store ptr %7, ptr %27, align 8
  %28 = getelementptr inbounds i8, ptr %0, i64 72
  store ptr %7, ptr %28, align 8
  %29 = getelementptr inbounds i8, ptr %0, i64 80
  br label %_ZNSt3mapINSt7__cxx1112basic_stringIcSt11char_traitsIcESaIcEEES5_St4lessIS5_ESaISt4pairIKS5_S5_EEEC2EOSC_.exit

_ZNSt3mapINSt7__cxx1112basic_stringIcSt11char_traitsIcESaIcEEES5_St4lessIS5_ESaISt4pairIKS5_S5_EEEC2EOSC_.exit: ; preds = %10, %25
  %.sink.i.i.i.i = phi ptr [ %22, %10 ], [ %29, %25 ]
  store i64 0, ptr %.sink.i.i.i.i, align 8
  %30 = getelementptr inbounds i8, ptr %0, i64 96
  %31 = getelementptr inbounds i8, ptr %2, i64 16
  %32 = load ptr, ptr %31, align 8
  %.not.i.i.i.i1 = icmp eq ptr %32, null
  br i1 %.not.i.i.i.i1, label %48, label %33

33:                                               ; preds = %_ZNSt3mapINSt7__cxx1112basic_stringIcSt11char_traitsIcESaIcEEES5_St4lessIS5_ESaISt4pairIKS5_S5_EEEC2EOSC_.exit
  %34 = getelementptr inbounds i8, ptr %2, i64 8
  %35 = load i32, ptr %34, align 8
  store i32 %35, ptr %30, align 8
  %36 = load ptr, ptr %31, align 8
  %37 = getelementptr inbounds i8, ptr %0, i64 104
  store ptr %36, ptr %37, align 8
  %38 = getelementptr inbounds i8, ptr %2, i64 24
  %39 = load ptr, ptr %38, align 8
  %40 = getelementptr inbounds i8, ptr %0, i64 112
  store ptr %39, ptr %40, align 8
  %41 = getelementptr inbounds i8, ptr %2, i64 32
  %42 = load ptr, ptr %41, align 8
  %43 = getelementptr inbounds i8, ptr %0, i64 120
  store ptr %42, ptr %43, align 8
  %44 = getelementptr inbounds i8, ptr %36, i64 8
  store ptr %30, ptr %44, align 8
  %45 = getelementptr inbounds i8, ptr %2, i64 40
  %46 = load i64, ptr %45, align 8
  %47 = getelementptr inbounds i8, ptr %0, i64 128
  store i64 %46, ptr %47, align 8
  store ptr null, ptr %31, align 8
  store ptr %34, ptr %38, align 8
  store ptr %34, ptr %41, align 8
  br label %_ZNSt3mapINSt7__cxx1112basic_stringIcSt11char_traitsIcESaIcEEES5_St4lessIS5_ESaISt4pairIKS5_S5_EEEC2EOSC_.exit3

48:                                               ; preds = %_ZNSt3mapINSt7__cxx1112basic_stringIcSt11char_traitsIcESaIcEEES5_St4lessIS5_ESaISt4pairIKS5_S5_EEEC2EOSC_.exit
  store i32 0, ptr %30, align 8
  %49 = getelementptr inbounds i8, ptr %0, i64 104
  store ptr null, ptr %49, align 8
  %50 = getelementptr inbounds i8, ptr %0, i64 112
  store ptr %30, ptr %50, align 8
  %51 = getelementptr inbounds i8, ptr %0, i64 120
  store ptr %30, ptr %51, align 8
  %52 = getelementptr inbounds i8, ptr %0, i64 128
  br label %_ZNSt3mapINSt7__cxx1112basic_stringIcSt11char_traitsIcESaIcEEES5_St4lessIS5_ESaISt4pairIKS5_S5_EEEC2EOSC_.exit3

_ZNSt3mapINSt7__cxx1112basic_stringIcSt11char_traitsIcESaIcEEES5_St4lessIS5_ESaISt4pairIKS5_S5_EEEC2EOSC_.exit3: ; preds = %33, %48
  %.sink.i.i.i.i2 = phi ptr [ %45, %33 ], [ %52, %48 ]
  store i64 0, ptr %.sink.i.i.i.i2, align 8
  %53 = getelementptr inbounds i8, ptr %0, i64 136
  tail call void @_ZNSt7__cxx1112basic_stringIcSt11char_traitsIcESaIcEEC1EOS4_(ptr noundef nonnull align 8 dereferenceable(32) %53, ptr noundef nonnull align 8 dereferenceable(32) %3) #14
  %54 = getelementptr inbounds i8, ptr %0, i64 168
  tail call void @_ZNSt7__cxx1112basic_stringIcSt11char_traitsIcESaIcEEC1EOS4_(ptr noundef nonnull align 8 dereferenceable(32) %54, ptr noundef nonnull align 8 dereferenceable(32) %4) #14
  %55 = getelementptr inbounds i8, ptr %0, i64 200
  tail call void @llvm.memset.p0.i64(ptr noundef nonnull align 8 dereferenceable(16) %55, i8 0, i64 16, i1 false)
  ret void
}